target datalayout = "e-m:e-p270:32:32-p271:32:32-p272:64:64-i64:64-i128:128-f80:128-n8:16:32:64-S128"
target triple = "x86_64-pc-linux-gnu"

@.str.1514 = private unnamed_addr constant [23 x i8] c"Invalid int length %d!\00", align 1
@.str.1515 = private unnamed_addr constant [3 x i8] c"%d\00", align 1

; Function Attrs: null_pointer_is_valid sspstrong uwtable
define internal i32 @format_amqp_0_10_int(ptr noundef %0, i32 noundef %1, i32 noundef %2, ptr noundef %3) #0 {
  %5 = alloca i32, align 4
  %6 = alloca ptr, align 8
  %7 = alloca i32, align 4
  %8 = alloca i32, align 4
  %9 = alloca ptr, align 8
  %10 = alloca i32, align 4
  %11 = alloca i32, align 4
  store ptr %0, ptr %6, align 8
  store i32 %1, ptr %7, align 4
  store i32 %2, ptr %8, align 4
  store ptr %3, ptr %9, align 8
  call void @llvm.lifetime.start.p0(i64 4, ptr %10) #11
  %12 = load i32, ptr %8, align 4
  %13 = icmp eq i32 %12, 1
  br i1 %13, label %14, label %19

14:                                               ; preds = %4
  %15 = load ptr, ptr %6, align 8
  %16 = load i32, ptr %7, align 4
  %17 = call signext i8 @tvb_get_int8(ptr noundef %15, i32 noundef %16)
  %18 = sext i8 %17 to i32
  store i32 %18, ptr %10, align 4
  br label %42

19:                                               ; preds = %4
  %20 = load i32, ptr %8, align 4
  %21 = icmp eq i32 %20, 2
  br i1 %21, label %22, label %27

22:                                               ; preds = %19
  %23 = load ptr, ptr %6, align 8
  %24 = load i32, ptr %7, align 4
  %25 = call signext i16 @tvb_get_ntohis(ptr noundef %23, i32 noundef %24)
  %26 = sext i16 %25 to i32
  store i32 %26, ptr %10, align 4
  br label %41

27:                                               ; preds = %19
  %28 = load i32, ptr %8, align 4
  %29 = icmp eq i32 %28, 4
  br i1 %29, label %30, label %34

30:                                               ; preds = %27
  %31 = load ptr, ptr %6, align 8
  %32 = load i32, ptr %7, align 4
  %33 = call i32 @tvb_get_ntohil(ptr noundef %31, i32 noundef %32)
  store i32 %33, ptr %10, align 4
  br label %40

34:                                               ; preds = %27
  %35 = call ptr @wmem_packet_scope()
  %36 = load i32, ptr %8, align 4
  %37 = call noalias ptr (ptr, ptr, ...) @wmem_strdup_printf(ptr noundef %35, ptr noundef @.str.1514, i32 noundef %36)
  %38 = load ptr, ptr %9, align 8
  store ptr %37, ptr %38, align 8
  %39 = load i32, ptr %8, align 4
  store i32 %39, ptr %5, align 4
  store i32 1, ptr %11, align 4
  br label %48

40:                                               ; preds = %30
  br label %41

41:                                               ; preds = %40, %22
  br label %42

42:                                               ; preds = %41, %14
  %43 = call ptr @wmem_packet_scope()
  %44 = load i32, ptr %10, align 4
  %45 = call noalias ptr (ptr, ptr, ...) @wmem_strdup_printf(ptr noundef %43, ptr noundef @.str.1515, i32 noundef %44)
  %46 = load ptr, ptr %9, align 8
  store ptr %45, ptr %46, align 8
  %47 = load i32, ptr %8, align 4
  store i32 %47, ptr %5, align 4
  store i32 1, ptr %11, align 4
  br label %48

48:                                               ; preds = %42, %34
  call void @llvm.lifetime.end.p0(i64 4, ptr %10) #11
  %49 = load i32, ptr %5, align 4
  ret i32 %49
}